Certificate:
    Data:
        Version: 3 (0x2)
        Serial Number: 1 (0x1)
        Signature Algorithm: sha256WithRSAEncryption
        Issuer: CN=PHYTEC Messtechnik GmbH PHYTEC BSP CA, O=PHYTEC Messtechnik GmbH
        Validity
            Not Before: Jan  1 00:00:00 1970 GMT
            Not After : Dec 31 23:59:59 9999 GMT
        Subject: O=PHYTEC Messtechnik GmbH, CN=PHYTEC Messtechnik GmbH Development-1
        Subject Public Key Info:
            Public Key Algorithm: rsaEncryption
                RSA Public-Key: (2048 bit)
                Modulus:
                    00:f7:30:98:15:0d:8f:3f:62:49:59:47:40:5e:15:
                    b8:b7:62:b2:7e:4a:15:ec:85:6d:40:3b:8a:07:af:
                    68:5c:66:4c:d2:b6:32:03:cd:47:12:42:db:a9:29:
                    7d:ef:78:15:cc:9a:71:ee:0d:23:c2:64:78:05:d9:
                    91:2d:b2:33:53:8f:96:e0:d1:c3:c1:4d:34:f0:0a:
                    af:da:c3:07:bc:33:22:f9:c0:b4:30:b0:31:b1:f7:
                    47:ea:ed:8f:55:1a:fb:7c:aa:cc:c7:8d:ac:e6:f6:
                    fc:b8:ba:ef:b2:68:d3:c7:2e:59:7b:ed:bc:a9:a1:
                    39:c1:81:16:c1:35:6e:5e:d6:d1:92:83:e7:fc:1f:
                    4d:33:48:88:bc:5b:cd:4d:d9:ff:f8:eb:a7:8e:c1:
                    cd:1f:37:96:a7:19:c2:f4:ea:d7:4b:84:69:f7:3a:
                    a3:a5:4d:93:d8:7b:55:d8:71:c8:b2:b6:50:6c:80:
                    f4:ed:da:63:71:6b:90:ef:4c:ad:fc:13:e8:8e:57:
                    df:a6:2d:58:2c:41:16:cf:3d:d7:85:70:eb:33:20:
                    10:c2:d0:fc:7a:b2:30:61:d3:8e:80:19:29:fc:30:
                    6c:9f:4b:ae:13:f5:3e:04:41:40:80:0b:b2:61:14:
                    72:1f:97:24:31:0c:3f:b1:18:b3:7d:33:13:a8:d3:
                    2e:fb
                Exponent: 65537 (0x10001)
        X509v3 extensions:
            X509v3 Subject Key Identifier: 
                64:2A:BA:B9:09:5D:2E:C5:3E:77:A4:46:4C:CC:E8:90:BF:C2:D5:B5
            X509v3 Authority Key Identifier: 
                keyid:C1:6A:E7:24:7C:8C:7E:19:22:1B:95:7E:FA:92:C5:28:0B:70:20:18
                DirName:/CN=PHYTEC Messtechnik GmbH PHYTEC BSP CA/O=PHYTEC Messtechnik GmbH
                serial:19:1B:1B:D9:D2:5D:4D:3B:F6:CA:CA:15:78:9E:65:48:9B:4A:16:B1

            X509v3 Basic Constraints: 
                CA:FALSE
    Signature Algorithm: sha256WithRSAEncryption
         06:73:57:a4:70:00:de:0e:7a:70:38:15:de:48:2e:bb:98:95:
         55:b8:c0:c1:6b:c4:e9:dc:41:e7:e7:39:da:ac:a1:40:48:e8:
         c3:bf:36:5e:22:c9:81:21:de:63:48:38:97:ff:0a:87:9c:3a:
         44:5b:af:b4:a4:43:35:2c:e0:27:f8:8c:c9:e2:a3:2a:10:51:
         04:74:5c:92:81:0d:04:56:d0:dc:31:84:a6:90:da:a3:30:70:
         17:a2:48:19:27:a0:d4:c7:4c:81:79:60:4d:3f:a3:b4:34:3a:
         a9:47:94:f1:ba:27:6b:f8:93:d5:65:c5:80:36:f1:43:e7:62:
         31:a6:9f:01:cd:69:ca:89:2b:1c:50:04:15:d8:87:ee:b6:6e:
         6c:29:f2:ae:e8:89:75:a8:55:13:e0:4a:db:ac:8b:e2:b9:5c:
         9e:b7:25:23:b7:79:ad:e6:85:74:75:45:d0:39:de:00:f2:e1:
         65:98:f2:5a:c6:dd:1a:0a:08:4c:71:05:1a:3a:d7:52:3a:f1:
         3a:91:94:fd:29:d1:e1:53:e9:74:41:08:74:9f:c0:4e:d2:45:
         d6:ac:18:cd:c9:8f:f1:7a:1e:ae:2d:5f:14:1b:e5:1c:b6:e8:
         d6:4f:dd:81:28:23:d3:a0:68:85:3d:de:65:a0:67:b5:8b:ef:
         b0:0e:36:b3
-----BEGIN CERTIFICATE-----
MIID4TCCAsmgAwIBAgIBATANBgkqhkiG9w0BAQsFADBSMS4wLAYDVQQDDCVQSFlU
RUMgTWVzc3RlY2huaWsgR21iSCBQSFlURUMgQlNQIENBMSAwHgYDVQQKDBdQSFlU
RUMgTWVzc3RlY2huaWsgR21iSDAgFw03MDAxMDEwMDAwMDBaGA85OTk5MTIzMTIz
NTk1OVowUjEgMB4GA1UECgwXUEhZVEVDIE1lc3N0ZWNobmlrIEdtYkgxLjAsBgNV
BAMMJVBIWVRFQyBNZXNzdGVjaG5payBHbWJIIERldmVsb3BtZW50LTEwggEiMA0G
CSqGSIb3DQEBAQUAA4IBDwAwggEKAoIBAQD3MJgVDY8/YklZR0BeFbi3YrJ+ShXs
hW1AO4oHr2hcZkzStjIDzUcSQtupKX3veBXMmnHuDSPCZHgF2ZEtsjNTj5bg0cPB
TTTwCq/awwe8MyL5wLQwsDGx90fq7Y9VGvt8qszHjazm9vy4uu+yaNPHLll77byp
oTnBgRbBNW5e1tGSg+f8H00zSIi8W81N2f/466eOwc0fN5anGcL06tdLhGn3OqOl
TZPYe1XYcciytlBsgPTt2mNxa5DvTK38E+iOV9+mLVgsQRbPPdeFcOszIBDC0Px6
sjBh046AGSn8MGyfS64T9T4EQUCAC7JhFHIflyQxDD+xGLN9MxOo0y77AgMBAAGj
gb8wgbwwHQYDVR0OBBYEFGQqurkJXS7FPnekRkzM6JC/wtW1MIGPBgNVHSMEgYcw
gYSAFMFq5yR8jH4ZIhuVfvqSxSgLcCAYoVakVDBSMS4wLAYDVQQDDCVQSFlURUMg
TWVzc3RlY2huaWsgR21iSCBQSFlURUMgQlNQIENBMSAwHgYDVQQKDBdQSFlURUMg
TWVzc3RlY2huaWsgR21iSIIUGRsb2dJdTTv2ysoVeJ5lSJtKFrEwCQYDVR0TBAIw
ADANBgkqhkiG9w0BAQsFAAOCAQEABnNXpHAA3g56cDgV3kguu5iVVbjAwWvE6dxB
5+c52qyhQEjow782XiLJgSHeY0g4l/8Kh5w6RFuvtKRDNSzgJ/iMyeKjKhBRBHRc
koENBFbQ3DGEppDaozBwF6JIGSeg1MdMgXlgTT+jtDQ6qUeU8bona/iT1WXFgDbx
Q+diMaafAc1pyokrHFAEFdiH7rZubCnyruiJdahVE+BK26yL4rlcnrclI7d5reaF
dHVF0DneAPLhZZjyWsbdGgoITHEFGjrXUjrxOpGU/SnR4VPpdEEIdJ/ATtJF1qwY
zcmP8Xoeri1fFBvlHLbo1k/dgSgj06BohT3eZaBntYvvsA42sw==
-----END CERTIFICATE-----
