Certificate:
    Data:
        Version: 3 (0x2)
        Serial Number: 2 (0x2)
        Signature Algorithm: sha256WithRSAEncryption
        Issuer: CN=Customer Ltd BSP CA, O=Customer Ltd
        Validity
            Not Before: Jan  1 00:00:00 1970 GMT
            Not After : Dec 31 23:59:59 9999 GMT
        Subject: O=Customer Ltd, CN=Customer Ltd Production-1
        Subject Public Key Info:
            Public Key Algorithm: rsaEncryption
                RSA Public-Key: (2048 bit)
                Modulus:
                    00:c4:17:3e:ab:f1:9f:5f:7a:2a:ae:8f:78:d2:d9:
                    36:0d:ac:79:4e:34:49:78:d6:57:87:3b:48:7c:0e:
                    01:e0:1d:72:51:0a:d8:52:91:b6:6e:84:37:79:3b:
                    02:8f:06:69:66:40:0c:69:bf:af:c5:33:c7:74:8e:
                    37:ff:dc:fe:15:bf:00:c8:99:9c:21:f8:4a:b0:d8:
                    8a:eb:da:75:d7:18:4d:df:f9:69:30:e4:54:e0:b7:
                    23:98:d1:de:59:be:e8:65:19:01:8c:2a:96:7d:c4:
                    1e:70:0c:17:e2:0b:a5:b6:b6:ca:b9:76:e3:6b:2b:
                    8c:d4:e6:ce:6f:e8:a4:37:59:d7:21:8a:28:11:21:
                    e4:88:d1:d6:3c:c6:5b:8a:57:aa:34:bc:c6:79:73:
                    88:b5:6a:c3:90:b3:ac:e8:2a:cd:1a:7e:87:df:63:
                    38:99:ba:90:ff:ad:29:8e:1d:0b:7e:46:66:6d:2f:
                    bb:1f:14:a1:dd:4a:10:81:23:5e:73:59:5a:36:f5:
                    bf:79:2a:f8:ff:59:f3:1f:0d:08:20:71:d0:da:1e:
                    38:b7:5d:3d:2b:d4:59:6d:35:e9:8a:be:fc:95:a0:
                    eb:95:7f:ad:19:dd:74:fe:bd:f6:38:ee:b5:10:d3:
                    72:73:ab:68:ae:bb:af:cd:ba:94:2b:43:be:37:78:
                    d8:e9
                Exponent: 65537 (0x10001)
        X509v3 extensions:
            X509v3 Subject Key Identifier: 
                AD:FD:D7:60:6F:AE:67:B1:46:B4:D6:B5:02:98:F0:95:89:69:8B:12
            X509v3 Authority Key Identifier: 
                keyid:A1:C4:B8:15:4B:DB:CE:8C:D6:27:7D:C2:D4:54:28:A2:F1:15:86:F2
                DirName:/CN=Customer Ltd BSP CA/O=Customer Ltd
                serial:12:CF:38:8A:3F:E7:19:64:78:87:03:6C:F8:7F:38:01:82:EC:73:00

            X509v3 Basic Constraints: 
                CA:FALSE
    Signature Algorithm: sha256WithRSAEncryption
         28:e1:40:46:22:96:47:84:9a:73:f2:67:51:eb:45:5a:70:b2:
         11:6d:c8:bf:f1:c2:38:96:db:e0:70:13:32:2c:20:01:cc:cf:
         eb:5e:c6:bc:3a:46:32:e6:b6:d9:72:76:6e:a8:58:83:d9:55:
         6f:94:a4:f6:e4:06:28:dc:2f:4b:21:52:43:5f:93:3b:bc:ca:
         86:8c:21:f1:16:74:b8:4a:ec:01:dd:e0:1d:bd:29:11:de:68:
         88:db:2b:41:8f:9d:f7:94:2d:08:de:44:80:05:8a:57:98:ab:
         d7:ac:a2:fc:bb:6b:af:aa:ad:9b:9a:b6:a3:80:45:72:da:b5:
         e9:5c:13:90:08:c0:43:3c:14:9c:da:d8:f1:1b:13:35:86:f2:
         d0:6c:de:80:d3:4f:95:13:48:47:c4:04:df:fb:81:7a:f1:4c:
         80:a2:e9:23:51:27:36:ce:65:49:b3:33:b4:cb:4c:b0:ec:42:
         19:04:e5:e4:e6:84:98:15:66:f1:08:57:cb:92:82:65:89:be:
         fa:1f:4b:28:c9:25:18:4d:75:08:ee:1a:5a:fc:b8:f4:38:ba:
         f4:d3:8e:aa:3a:45:ed:be:87:38:41:95:0a:2a:58:db:c5:48:
         1d:44:f5:1f:06:81:96:a0:6d:93:e1:05:31:2e:9c:52:5a:bb:
         7b:d7:c6:7e
-----BEGIN CERTIFICATE-----
MIIDjTCCAnWgAwIBAgIBAjANBgkqhkiG9w0BAQsFADA1MRwwGgYDVQQDDBNDdXN0
b21lciBMdGQgQlNQIENBMRUwEwYDVQQKDAxDdXN0b21lciBMdGQwIBcNNzAwMTAx
MDAwMDAwWhgPOTk5OTEyMzEyMzU5NTlaMDsxFTATBgNVBAoMDEN1c3RvbWVyIEx0
ZDEiMCAGA1UEAwwZQ3VzdG9tZXIgTHRkIFByb2R1Y3Rpb24tMTCCASIwDQYJKoZI
hvcNAQEBBQADggEPADCCAQoCggEBAMQXPqvxn196Kq6PeNLZNg2seU40SXjWV4c7
SHwOAeAdclEK2FKRtm6EN3k7Ao8GaWZADGm/r8Uzx3SON//c/hW/AMiZnCH4SrDY
iuvaddcYTd/5aTDkVOC3I5jR3lm+6GUZAYwqln3EHnAMF+ILpba2yrl242srjNTm
zm/opDdZ1yGKKBEh5IjR1jzGW4pXqjS8xnlziLVqw5CzrOgqzRp+h99jOJm6kP+t
KY4dC35GZm0vux8Uod1KEIEjXnNZWjb1v3kq+P9Z8x8NCCBx0NoeOLddPSvUWW01
6Yq+/JWg65V/rRnddP699jjutRDTcnOraK67r826lCtDvjd42OkCAwEAAaOBnzCB
nDAdBgNVHQ4EFgQUrf3XYG+uZ7FGtNa1ApjwlYlpixIwcAYDVR0jBGkwZ4AUocS4
FUvbzozWJ33C1FQoovEVhvKhOaQ3MDUxHDAaBgNVBAMME0N1c3RvbWVyIEx0ZCBC
U1AgQ0ExFTATBgNVBAoMDEN1c3RvbWVyIEx0ZIIUEs84ij/nGWR4hwNs+H84AYLs
cwAwCQYDVR0TBAIwADANBgkqhkiG9w0BAQsFAAOCAQEAKOFARiKWR4Sac/JnUetF
WnCyEW3Iv/HCOJbb4HATMiwgAczP617GvDpGMua22XJ2bqhYg9lVb5Sk9uQGKNwv
SyFSQ1+TO7zKhowh8RZ0uErsAd3gHb0pEd5oiNsrQY+d95QtCN5EgAWKV5ir16yi
/Ltrr6qtm5q2o4BFctq16VwTkAjAQzwUnNrY8RsTNYby0GzegNNPlRNIR8QE3/uB
evFMgKLpI1EnNs5lSbMztMtMsOxCGQTl5OaEmBVm8QhXy5KCZYm++h9LKMklGE11
CO4aWvy49Di69NOOqjpF7b6HOEGVCipY28VIHUT1HwaBlqBtk+EFMS6cUlq7e9fG
fg==
-----END CERTIFICATE-----
